; Function Attrs: mustprogress uwtable
define void @_ZN7Imf_3_410IDManifestC2EPKcS2_(ptr noundef nonnull align 8 dereferenceable(24) initializes((0, 24)) %0, ptr noundef %1, ptr noundef %2) unnamed_addr #6 align 2 personality ptr @__gxx_personality_v0 {
  tail call void @llvm.memset.p0.i64(ptr noundef nonnull align 8 dereferenceable(24) %0, i8 0, i64 24, i1 false)
  invoke void @_ZN7Imf_3_410IDManifest4initEPKcS2_(ptr noundef nonnull align 8 dereferenceable(24) %0, ptr noundef %1, ptr noundef %2)
          to label %4 unwind label %5

4:                                                ; preds = %3
  ret void

5:                                                ; preds = %3
  %6 = landingpad { ptr, i32 }
          cleanup
  tail call void @_ZNSt6vectorIN7Imf_3_410IDManifest20ChannelGroupManifestESaIS2_EED2Ev(ptr noundef nonnull align 8 dereferenceable(24) %0) #34
  resume { ptr, i32 } %6
}